target datalayout = "e-m:e-p270:32:32-p271:32:32-p272:64:64-i64:64-i128:128-f80:128-n8:16:32:64-S128"
target triple = "x86_64-pc-linux-gnu"

%struct.AVFormatContext = type { ptr, ptr, ptr, ptr, ptr, i32, i32, ptr, i32, ptr, i32, ptr, ptr, i64, i64, i64, i32, i32, i32, i64, i64, ptr, i32, i32, ptr, i32, i32, i32, i32, ptr, i64, i32, i32, %struct.AVIOInterruptCB, i32, i32, i32, i32, i64, i32, i32, i32, i32, i32, i32, i32, i32, i32, i32, i32, i32, i64, i32, i32, i32, i32, i32, ptr, ptr, ptr, ptr, i32, ptr, ptr, ptr, ptr, i32, ptr, ptr, i64, ptr, ptr, ptr, i64 }
%struct.AVIOInterruptCB = type { ptr, ptr }
%struct.AVRational = type { i32, i32 }
%struct.APNGMuxContext = type { ptr, i32, %struct.AVRational, i64, i32, ptr, %struct.AVRational, i32, ptr, i32 }

; Function Attrs: nounwind uwtable
define internal i32 @apng_write_packet(ptr noundef %0, ptr noundef %1) #0 {
  %3 = alloca i32, align 4
  %4 = alloca ptr, align 8
  %5 = alloca ptr, align 8
  %6 = alloca ptr, align 8
  %7 = alloca i32, align 4
  %8 = alloca i32, align 4
  store ptr %0, ptr %4, align 8, !tbaa !4
  store ptr %1, ptr %5, align 8, !tbaa !50
  call void @llvm.lifetime.start.p0(i64 8, ptr %6) #8
  %9 = load ptr, ptr %4, align 8, !tbaa !4
  %10 = getelementptr inbounds nuw %struct.AVFormatContext, ptr %9, i32 0, i32 3
  %11 = load ptr, ptr %10, align 8, !tbaa !9
  store ptr %11, ptr %6, align 8, !tbaa !26
  call void @llvm.lifetime.start.p0(i64 4, ptr %7) #8
  %12 = load ptr, ptr %6, align 8, !tbaa !26
  %13 = getelementptr inbounds nuw %struct.APNGMuxContext, ptr %12, i32 0, i32 5
  %14 = load ptr, ptr %13, align 8, !tbaa !51
  %15 = icmp ne ptr %14, null
  br i1 %15, label %31, label %16

16:                                               ; preds = %2
  %17 = call ptr @av_packet_alloc()
  %18 = load ptr, ptr %6, align 8, !tbaa !26
  %19 = getelementptr inbounds nuw %struct.APNGMuxContext, ptr %18, i32 0, i32 5
  store ptr %17, ptr %19, align 8, !tbaa !51
  %20 = load ptr, ptr %6, align 8, !tbaa !26
  %21 = getelementptr inbounds nuw %struct.APNGMuxContext, ptr %20, i32 0, i32 5
  %22 = load ptr, ptr %21, align 8, !tbaa !51
  %23 = icmp ne ptr %22, null
  br i1 %23, label %25, label %24

24:                                               ; preds = %16
  store i32 -12, ptr %3, align 4
  store i32 1, ptr %8, align 4
  br label %41

25:                                               ; preds = %16
  %26 = load ptr, ptr %6, align 8, !tbaa !26
  %27 = getelementptr inbounds nuw %struct.APNGMuxContext, ptr %26, i32 0, i32 5
  %28 = load ptr, ptr %27, align 8, !tbaa !51
  %29 = load ptr, ptr %5, align 8, !tbaa !50
  %30 = call i32 @av_packet_ref(ptr noundef %28, ptr noundef %29)
  br label %40

31:                                               ; preds = %2
  %32 = load ptr, ptr %4, align 8, !tbaa !4
  %33 = load ptr, ptr %5, align 8, !tbaa !50
  %34 = call i32 @flush_packet(ptr noundef %32, ptr noundef %33)
  store i32 %34, ptr %7, align 4, !tbaa !52
  %35 = load i32, ptr %7, align 4, !tbaa !52
  %36 = icmp slt i32 %35, 0
  br i1 %36, label %37, label %39

37:                                               ; preds = %31
  %38 = load i32, ptr %7, align 4, !tbaa !52
  store i32 %38, ptr %3, align 4
  store i32 1, ptr %8, align 4
  br label %41

39:                                               ; preds = %31
  br label %40

40:                                               ; preds = %39, %25
  store i32 0, ptr %3, align 4
  store i32 1, ptr %8, align 4
  br label %41

41:                                               ; preds = %40, %37, %24
  call void @llvm.lifetime.end.p0(i64 4, ptr %7) #8
  call void @llvm.lifetime.end.p0(i64 8, ptr %6) #8
  %42 = load i32, ptr %3, align 4
  ret i32 %42
}