; Function Attrs: nounwind uwtable
define internal range(i32 -1094995529, 1) i32 @apng_write_packet(ptr noundef %0, ptr noundef %1) #0 {
  %3 = getelementptr inbounds nuw i8, ptr %0, i64 24
  %4 = load ptr, ptr %3, align 8, !tbaa !4
  %5 = getelementptr inbounds nuw i8, ptr %4, i64 40
  %6 = load ptr, ptr %5, align 8, !tbaa !45
  %.not = icmp eq ptr %6, null
  br i1 %.not, label %7, label %11

7:                                                ; preds = %2
  %8 = tail call ptr @av_packet_alloc() #7
  store ptr %8, ptr %5, align 8, !tbaa !45
  %.not12 = icmp eq ptr %8, null
  br i1 %.not12, label %15, label %9

9:                                                ; preds = %7
  %10 = tail call i32 @av_packet_ref(ptr noundef nonnull %8, ptr noundef %1) #7
  br label %14

11:                                               ; preds = %2
  %12 = tail call fastcc i32 @flush_packet(ptr noundef nonnull %0, ptr noundef %1)
  %13 = icmp slt i32 %12, 0
  br i1 %13, label %15, label %14

14:                                               ; preds = %11, %9
  br label %15

15:                                               ; preds = %11, %7, %14
  %.0 = phi i32 [ 0, %14 ], [ -12, %7 ], [ %12, %11 ]
  ret i32 %.0
}